; Function Attrs: mustprogress nounwind uwtable
define void @_ZN8facebook5velox6memory14MemoryPoolImpl13setAbortErrorERKNSt15__exception_ptr13exception_ptrE(ptr nocapture noundef nonnull align 8 dereferenceable(480) %this, ptr nocapture noundef nonnull readonly align 8 dereferenceable(8) %error) local_unnamed_addr #5 align 2 personality ptr @__gxx_personality_v0 {
entry:
  %ref.tmp.i = alloca %"class.std::__exception_ptr::exception_ptr", align 8
  %aborted_ = getelementptr inbounds i8, ptr %this, i64 93
  %0 = load atomic i8, ptr %aborted_ seq_cst, align 1
  %1 = and i8 %0, 1
  %tobool.i.i.not = icmp eq i8 %1, 0
  br i1 %tobool.i.i.not, label %if.end, label %if.then

if.then:                                          ; preds = %entry
  tail call void @llvm.trap()
  unreachable

if.end:                                           ; preds = %entry
  %abortError_ = getelementptr inbounds i8, ptr %this, i64 96
  call void @llvm.lifetime.start.p0(i64 8, ptr nonnull %ref.tmp.i)
  %2 = load ptr, ptr %error, align 8
  store ptr %2, ptr %ref.tmp.i, align 8
  %tobool.not.i.i = icmp eq ptr %2, null
  br i1 %tobool.not.i.i, label %_ZNSt15__exception_ptr13exception_ptrC2ERKS0_.exit.i, label %if.then.i.i

if.then.i.i:                                      ; preds = %if.end
  call void @_ZNSt15__exception_ptr13exception_ptr9_M_addrefEv(ptr noundef nonnull align 8 dereferenceable(8) %ref.tmp.i) #26
  %.pre.i = load ptr, ptr %ref.tmp.i, align 8
  br label %_ZNSt15__exception_ptr13exception_ptrC2ERKS0_.exit.i

_ZNSt15__exception_ptr13exception_ptrC2ERKS0_.exit.i: ; preds = %if.then.i.i, %if.end
  %3 = phi ptr [ null, %if.end ], [ %.pre.i, %if.then.i.i ]
  %4 = load ptr, ptr %abortError_, align 8
  store ptr %4, ptr %ref.tmp.i, align 8
  store ptr %3, ptr %abortError_, align 8
  %tobool.not.i1.i = icmp eq ptr %4, null
  br i1 %tobool.not.i1.i, label %_ZNSt15__exception_ptr13exception_ptraSERKS0_.exit, label %if.then.i2.i

if.then.i2.i:                                     ; preds = %_ZNSt15__exception_ptr13exception_ptrC2ERKS0_.exit.i
  call void @_ZNSt15__exception_ptr13exception_ptr10_M_releaseEv(ptr noundef nonnull align 8 dereferenceable(8) %ref.tmp.i) #26
  br label %_ZNSt15__exception_ptr13exception_ptraSERKS0_.exit

_ZNSt15__exception_ptr13exception_ptraSERKS0_.exit: ; preds = %_ZNSt15__exception_ptr13exception_ptrC2ERKS0_.exit.i, %if.then.i2.i
  call void @llvm.lifetime.end.p0(i64 8, ptr nonnull %ref.tmp.i)
  store atomic i8 1, ptr %aborted_ seq_cst, align 1
  ret void
}